; Function Attrs: nounwind sspstrong uwtable
define internal i64 @cState_space(i64 noundef %0) #0 {
  %2 = tail call ptr @rb_check_typeddata(i64 noundef %0, ptr noundef nonnull @JSON_Generator_State_type) #22
  %3 = getelementptr inbounds nuw i8, ptr %2, i64 8
  %4 = load i64, ptr %3, align 8, !tbaa !26
  %.not = icmp eq i64 %4, 0
  br i1 %.not, label %5, label %8

5:                                                ; preds = %1
  %6 = tail call i64 @rb_utf8_str_new_static(ptr noundef nonnull @.str.79, i64 noundef 0) #22
  %7 = tail call i64 @rb_str_freeze(i64 noundef %6) #22
  br label %8

8:                                                ; preds = %1, %5
  %9 = phi i64 [ %7, %5 ], [ %4, %1 ]
  ret i64 %9
}